target datalayout = "e-m:e-p270:32:32-p271:32:32-p272:64:64-i64:64-i128:128-f80:128-n8:16:32:64-S128"
target triple = "x86_64-pc-linux-gnu"

%struct.rsa_st = type { i32, ptr, i32, ptr, ptr, ptr, ptr, ptr, ptr, ptr, ptr, ptr, ptr, %struct.rsa_pss_params_30_st, ptr, ptr, %struct.crypto_ex_data_st, %struct.CRYPTO_REF_COUNT, i32, ptr, ptr, ptr, ptr, ptr, ptr, i32 }
%struct.rsa_pss_params_30_st = type { i32, %struct.anon, i32, i32 }
%struct.anon = type { i32, i32 }
%struct.crypto_ex_data_st = type { ptr, ptr }
%struct.CRYPTO_REF_COUNT = type { i32 }

; Function Attrs: nounwind uwtable
define void @RSA_blinding_off(ptr noundef %0) #0 {
  %2 = alloca ptr, align 8
  store ptr %0, ptr %2, align 8, !tbaa !3
  %3 = load ptr, ptr %2, align 8, !tbaa !3
  %4 = getelementptr inbounds nuw %struct.rsa_st, ptr %3, i32 0, i32 22
  %5 = load ptr, ptr %4, align 8, !tbaa !34
  call void @BN_BLINDING_free(ptr noundef %5)
  %6 = load ptr, ptr %2, align 8, !tbaa !3
  %7 = getelementptr inbounds nuw %struct.rsa_st, ptr %6, i32 0, i32 22
  store ptr null, ptr %7, align 8, !tbaa !34
  %8 = load ptr, ptr %2, align 8, !tbaa !3
  %9 = getelementptr inbounds nuw %struct.rsa_st, ptr %8, i32 0, i32 18
  %10 = load i32, ptr %9, align 4, !tbaa !35
  %11 = and i32 %10, -9
  store i32 %11, ptr %9, align 4, !tbaa !35
  %12 = load ptr, ptr %2, align 8, !tbaa !3
  %13 = getelementptr inbounds nuw %struct.rsa_st, ptr %12, i32 0, i32 18
  %14 = load i32, ptr %13, align 4, !tbaa !35
  %15 = or i32 %14, 128
  store i32 %15, ptr %13, align 4, !tbaa !35
  ret void
}