; Function Attrs: nounwind uwtable
define void @RSA_blinding_off(ptr noundef captures(none) %0) local_unnamed_addr #0 {
  %2 = getelementptr inbounds nuw i8, ptr %0, i64 192
  %3 = load ptr, ptr %2, align 8, !tbaa !30
  tail call void @BN_BLINDING_free(ptr noundef %3) #3
  store ptr null, ptr %2, align 8, !tbaa !30
  %4 = getelementptr inbounds nuw i8, ptr %0, i64 164
  %5 = load i32, ptr %4, align 4, !tbaa !31
  %6 = and i32 %5, -137
  %7 = or disjoint i32 %6, 128
  store i32 %7, ptr %4, align 4, !tbaa !31
  ret void
}